target datalayout = "e-m:e-p270:32:32-p271:32:32-p272:64:64-i64:64-i128:128-f80:128-n8:16:32:64-S128"
target triple = "x86_64-pc-linux-gnu"

%struct.VLCElem = type { %union.anon.1 }
%union.anon.1 = type { %struct.anon }
%struct.anon = type { i16, i16 }

@.str.3 = private unnamed_addr constant [30 x i8] c"Assertion %s failed at %s:%d\0A\00", align 1
@.str.4 = private unnamed_addr constant [52 x i8] c"entry == (sizeof(run_code) / sizeof((run_code)[0]))\00", align 1
@.str.5 = private unnamed_addr constant [24 x i8] c"libavcodec/speedhqdec.c\00", align 1
@dc_alpha_run_vlc_le = internal global [160 x %struct.VLCElem] zeroinitializer, align 16
@.str.6 = private unnamed_addr constant [56 x i8] c"entry == (sizeof(level_code) / sizeof((level_code)[0]))\00", align 1
@dc_alpha_level_vlc_le = internal global [288 x %struct.VLCElem] zeroinitializer, align 16

; Function Attrs: cold nounwind optsize uwtable
define internal void @compute_alpha_vlcs() #0 {
  %1 = alloca [134 x i16], align 16
  %2 = alloca [266 x i16], align 16
  %3 = alloca [134 x i8], align 16
  %4 = alloca [266 x i8], align 16
  %5 = alloca [134 x i16], align 16
  %6 = alloca [266 x i16], align 16
  %7 = alloca i32, align 4
  %8 = alloca i32, align 4
  %9 = alloca i32, align 4
  call void @llvm.lifetime.start.p0(i64 268, ptr %1) #10
  call void @llvm.lifetime.start.p0(i64 532, ptr %2) #10
  call void @llvm.lifetime.start.p0(i64 134, ptr %3) #10
  call void @llvm.lifetime.start.p0(i64 266, ptr %4) #10
  call void @llvm.lifetime.start.p0(i64 268, ptr %5) #10
  call void @llvm.lifetime.start.p0(i64 532, ptr %6) #10
  call void @llvm.lifetime.start.p0(i64 4, ptr %7) #10
  call void @llvm.lifetime.start.p0(i64 4, ptr %8) #10
  call void @llvm.lifetime.start.p0(i64 4, ptr %9) #10
  store i32 0, ptr %7, align 4, !tbaa !31
  %10 = load i32, ptr %7, align 4, !tbaa !31
  %11 = sext i32 %10 to i64
  %12 = getelementptr inbounds [134 x i16], ptr %1, i64 0, i64 %11
  store i16 0, ptr %12, align 2, !tbaa !59
  %13 = load i32, ptr %7, align 4, !tbaa !31
  %14 = sext i32 %13 to i64
  %15 = getelementptr inbounds [134 x i8], ptr %3, i64 0, i64 %14
  store i8 1, ptr %15, align 1, !tbaa !52
  %16 = load i32, ptr %7, align 4, !tbaa !31
  %17 = sext i32 %16 to i64
  %18 = getelementptr inbounds [134 x i16], ptr %5, i64 0, i64 %17
  store i16 0, ptr %18, align 2, !tbaa !59
  %19 = load i32, ptr %7, align 4, !tbaa !31
  %20 = add nsw i32 %19, 1
  store i32 %20, ptr %7, align 4, !tbaa !31
  store i32 0, ptr %8, align 4, !tbaa !31
  br label %21

21:                                               ; preds = %43, %0
  %22 = load i32, ptr %8, align 4, !tbaa !31
  %23 = icmp slt i32 %22, 4
  br i1 %23, label %24, label %46

24:                                               ; preds = %21
  %25 = load i32, ptr %8, align 4, !tbaa !31
  %26 = shl i32 %25, 2
  %27 = or i32 %26, 1
  %28 = trunc i32 %27 to i16
  %29 = load i32, ptr %7, align 4, !tbaa !31
  %30 = sext i32 %29 to i64
  %31 = getelementptr inbounds [134 x i16], ptr %1, i64 0, i64 %30
  store i16 %28, ptr %31, align 2, !tbaa !59
  %32 = load i32, ptr %7, align 4, !tbaa !31
  %33 = sext i32 %32 to i64
  %34 = getelementptr inbounds [134 x i8], ptr %3, i64 0, i64 %33
  store i8 4, ptr %34, align 1, !tbaa !52
  %35 = load i32, ptr %8, align 4, !tbaa !31
  %36 = add nsw i32 %35, 1
  %37 = trunc i32 %36 to i16
  %38 = load i32, ptr %7, align 4, !tbaa !31
  %39 = sext i32 %38 to i64
  %40 = getelementptr inbounds [134 x i16], ptr %5, i64 0, i64 %39
  store i16 %37, ptr %40, align 2, !tbaa !59
  %41 = load i32, ptr %7, align 4, !tbaa !31
  %42 = add nsw i32 %41, 1
  store i32 %42, ptr %7, align 4, !tbaa !31
  br label %43

43:                                               ; preds = %24
  %44 = load i32, ptr %8, align 4, !tbaa !31
  %45 = add nsw i32 %44, 1
  store i32 %45, ptr %8, align 4, !tbaa !31
  br label %21, !llvm.loop !61

46:                                               ; preds = %21
  store i32 0, ptr %8, align 4, !tbaa !31
  br label %47

47:                                               ; preds = %68, %46
  %48 = load i32, ptr %8, align 4, !tbaa !31
  %49 = icmp slt i32 %48, 128
  br i1 %49, label %50, label %71

50:                                               ; preds = %47
  %51 = load i32, ptr %8, align 4, !tbaa !31
  %52 = shl i32 %51, 3
  %53 = or i32 %52, 7
  %54 = trunc i32 %53 to i16
  %55 = load i32, ptr %7, align 4, !tbaa !31
  %56 = sext i32 %55 to i64
  %57 = getelementptr inbounds [134 x i16], ptr %1, i64 0, i64 %56
  store i16 %54, ptr %57, align 2, !tbaa !59
  %58 = load i32, ptr %7, align 4, !tbaa !31
  %59 = sext i32 %58 to i64
  %60 = getelementptr inbounds [134 x i8], ptr %3, i64 0, i64 %59
  store i8 10, ptr %60, align 1, !tbaa !52
  %61 = load i32, ptr %8, align 4, !tbaa !31
  %62 = trunc i32 %61 to i16
  %63 = load i32, ptr %7, align 4, !tbaa !31
  %64 = sext i32 %63 to i64
  %65 = getelementptr inbounds [134 x i16], ptr %5, i64 0, i64 %64
  store i16 %62, ptr %65, align 2, !tbaa !59
  %66 = load i32, ptr %7, align 4, !tbaa !31
  %67 = add nsw i32 %66, 1
  store i32 %67, ptr %7, align 4, !tbaa !31
  br label %68

68:                                               ; preds = %50
  %69 = load i32, ptr %8, align 4, !tbaa !31
  %70 = add nsw i32 %69, 1
  store i32 %70, ptr %8, align 4, !tbaa !31
  br label %47, !llvm.loop !63

71:                                               ; preds = %47
  %72 = load i32, ptr %7, align 4, !tbaa !31
  %73 = sext i32 %72 to i64
  %74 = getelementptr inbounds [134 x i16], ptr %1, i64 0, i64 %73
  store i16 3, ptr %74, align 2, !tbaa !59
  %75 = load i32, ptr %7, align 4, !tbaa !31
  %76 = sext i32 %75 to i64
  %77 = getelementptr inbounds [134 x i8], ptr %3, i64 0, i64 %76
  store i8 3, ptr %77, align 1, !tbaa !52
  %78 = load i32, ptr %7, align 4, !tbaa !31
  %79 = sext i32 %78 to i64
  %80 = getelementptr inbounds [134 x i16], ptr %5, i64 0, i64 %79
  store i16 -1, ptr %80, align 2, !tbaa !59
  %81 = load i32, ptr %7, align 4, !tbaa !31
  %82 = add nsw i32 %81, 1
  store i32 %82, ptr %7, align 4, !tbaa !31
  br label %83

83:                                               ; preds = %71
  %84 = load i32, ptr %7, align 4, !tbaa !31
  %85 = sext i32 %84 to i64
  %86 = icmp eq i64 %85, 134
  br i1 %86, label %88, label %87

87:                                               ; preds = %83
  call void (ptr, i32, ptr, ...) @av_log(ptr noundef null, i32 noundef 0, ptr noundef @.str.3, ptr noundef @.str.4, ptr noundef @.str.5, i32 noundef 528)
  call void @abort() #12
  unreachable

88:                                               ; preds = %83
  br label %89

89:                                               ; preds = %88
  br label %90

90:                                               ; preds = %89
  %91 = getelementptr inbounds [134 x i8], ptr %3, i64 0, i64 0
  %92 = getelementptr inbounds [134 x i16], ptr %1, i64 0, i64 0
  %93 = getelementptr inbounds [134 x i16], ptr %5, i64 0, i64 0
  call void @ff_vlc_init_table_sparse(ptr noundef @dc_alpha_run_vlc_le, i32 noundef 160, i32 noundef 5, i32 noundef 134, ptr noundef %91, i32 noundef 1, i32 noundef 1, ptr noundef %92, i32 noundef 2, i32 noundef 2, ptr noundef %93, i32 noundef 2, i32 noundef 2, i32 noundef 12)
  store i32 0, ptr %7, align 4, !tbaa !31
  store i32 0, ptr %9, align 4, !tbaa !31
  br label %94

94:                                               ; preds = %155, %90
  %95 = load i32, ptr %9, align 4, !tbaa !31
  %96 = icmp sle i32 %95, 1
  br i1 %96, label %97, label %158

97:                                               ; preds = %94
  %98 = load i32, ptr %9, align 4, !tbaa !31
  %99 = shl i32 %98, 1
  %100 = or i32 %99, 1
  %101 = trunc i32 %100 to i16
  %102 = load i32, ptr %7, align 4, !tbaa !31
  %103 = sext i32 %102 to i64
  %104 = getelementptr inbounds [266 x i16], ptr %2, i64 0, i64 %103
  store i16 %101, ptr %104, align 2, !tbaa !59
  %105 = load i32, ptr %7, align 4, !tbaa !31
  %106 = sext i32 %105 to i64
  %107 = getelementptr inbounds [266 x i8], ptr %4, i64 0, i64 %106
  store i8 2, ptr %107, align 1, !tbaa !52
  %108 = load i32, ptr %9, align 4, !tbaa !31
  %109 = icmp ne i32 %108, 0
  %110 = select i1 %109, i32 -1, i32 1
  %111 = trunc i32 %110 to i16
  %112 = load i32, ptr %7, align 4, !tbaa !31
  %113 = sext i32 %112 to i64
  %114 = getelementptr inbounds [266 x i16], ptr %6, i64 0, i64 %113
  store i16 %111, ptr %114, align 2, !tbaa !59
  %115 = load i32, ptr %7, align 4, !tbaa !31
  %116 = add nsw i32 %115, 1
  store i32 %116, ptr %7, align 4, !tbaa !31
  store i32 0, ptr %8, align 4, !tbaa !31
  br label %117

117:                                              ; preds = %151, %97
  %118 = load i32, ptr %8, align 4, !tbaa !31
  %119 = icmp slt i32 %118, 4
  br i1 %119, label %120, label %154

120:                                              ; preds = %117
  %121 = load i32, ptr %8, align 4, !tbaa !31
  %122 = shl i32 %121, 3
  %123 = load i32, ptr %9, align 4, !tbaa !31
  %124 = shl i32 %123, 2
  %125 = or i32 %122, %124
  %126 = or i32 %125, 2
  %127 = trunc i32 %126 to i16
  %128 = load i32, ptr %7, align 4, !tbaa !31
  %129 = sext i32 %128 to i64
  %130 = getelementptr inbounds [266 x i16], ptr %2, i64 0, i64 %129
  store i16 %127, ptr %130, align 2, !tbaa !59
  %131 = load i32, ptr %7, align 4, !tbaa !31
  %132 = sext i32 %131 to i64
  %133 = getelementptr inbounds [266 x i8], ptr %4, i64 0, i64 %132
  store i8 5, ptr %133, align 1, !tbaa !52
  %134 = load i32, ptr %9, align 4, !tbaa !31
  %135 = icmp ne i32 %134, 0
  br i1 %135, label %136, label %140

136:                                              ; preds = %120
  %137 = load i32, ptr %8, align 4, !tbaa !31
  %138 = add nsw i32 %137, 2
  %139 = sub nsw i32 0, %138
  br label %143

140:                                              ; preds = %120
  %141 = load i32, ptr %8, align 4, !tbaa !31
  %142 = add nsw i32 %141, 2
  br label %143

143:                                              ; preds = %140, %136
  %144 = phi i32 [ %139, %136 ], [ %142, %140 ]
  %145 = trunc i32 %144 to i16
  %146 = load i32, ptr %7, align 4, !tbaa !31
  %147 = sext i32 %146 to i64
  %148 = getelementptr inbounds [266 x i16], ptr %6, i64 0, i64 %147
  store i16 %145, ptr %148, align 2, !tbaa !59
  %149 = load i32, ptr %7, align 4, !tbaa !31
  %150 = add nsw i32 %149, 1
  store i32 %150, ptr %7, align 4, !tbaa !31
  br label %151

151:                                              ; preds = %143
  %152 = load i32, ptr %8, align 4, !tbaa !31
  %153 = add nsw i32 %152, 1
  store i32 %153, ptr %8, align 4, !tbaa !31
  br label %117, !llvm.loop !64

154:                                              ; preds = %117
  br label %155

155:                                              ; preds = %154
  %156 = load i32, ptr %9, align 4, !tbaa !31
  %157 = add nsw i32 %156, 1
  store i32 %157, ptr %9, align 4, !tbaa !31
  br label %94, !llvm.loop !65

158:                                              ; preds = %94
  store i32 0, ptr %8, align 4, !tbaa !31
  br label %159

159:                                              ; preds = %179, %158
  %160 = load i32, ptr %8, align 4, !tbaa !31
  %161 = icmp slt i32 %160, 256
  br i1 %161, label %162, label %182

162:                                              ; preds = %159
  %163 = load i32, ptr %8, align 4, !tbaa !31
  %164 = shl i32 %163, 2
  %165 = trunc i32 %164 to i16
  %166 = load i32, ptr %7, align 4, !tbaa !31
  %167 = sext i32 %166 to i64
  %168 = getelementptr inbounds [266 x i16], ptr %2, i64 0, i64 %167
  store i16 %165, ptr %168, align 2, !tbaa !59
  %169 = load i32, ptr %7, align 4, !tbaa !31
  %170 = sext i32 %169 to i64
  %171 = getelementptr inbounds [266 x i8], ptr %4, i64 0, i64 %170
  store i8 10, ptr %171, align 1, !tbaa !52
  %172 = load i32, ptr %8, align 4, !tbaa !31
  %173 = trunc i32 %172 to i16
  %174 = load i32, ptr %7, align 4, !tbaa !31
  %175 = sext i32 %174 to i64
  %176 = getelementptr inbounds [266 x i16], ptr %6, i64 0, i64 %175
  store i16 %173, ptr %176, align 2, !tbaa !59
  %177 = load i32, ptr %7, align 4, !tbaa !31
  %178 = add nsw i32 %177, 1
  store i32 %178, ptr %7, align 4, !tbaa !31
  br label %179

179:                                              ; preds = %162
  %180 = load i32, ptr %8, align 4, !tbaa !31
  %181 = add nsw i32 %180, 1
  store i32 %181, ptr %8, align 4, !tbaa !31
  br label %159, !llvm.loop !66

182:                                              ; preds = %159
  br label %183

183:                                              ; preds = %182
  %184 = load i32, ptr %7, align 4, !tbaa !31
  %185 = sext i32 %184 to i64
  %186 = icmp eq i64 %185, 266
  br i1 %186, label %188, label %187

187:                                              ; preds = %183
  call void (ptr, i32, ptr, ...) @av_log(ptr noundef null, i32 noundef 0, ptr noundef @.str.3, ptr noundef @.str.6, ptr noundef @.str.5, i32 noundef 568)
  call void @abort() #12
  unreachable

188:                                              ; preds = %183
  br label %189

189:                                              ; preds = %188
  br label %190

190:                                              ; preds = %189
  %191 = getelementptr inbounds [266 x i8], ptr %4, i64 0, i64 0
  %192 = getelementptr inbounds [266 x i16], ptr %2, i64 0, i64 0
  %193 = getelementptr inbounds [266 x i16], ptr %6, i64 0, i64 0
  call void @ff_vlc_init_table_sparse(ptr noundef @dc_alpha_level_vlc_le, i32 noundef 288, i32 noundef 5, i32 noundef 266, ptr noundef %191, i32 noundef 1, i32 noundef 1, ptr noundef %192, i32 noundef 2, i32 noundef 2, ptr noundef %193, i32 noundef 2, i32 noundef 2, i32 noundef 12)
  call void @llvm.lifetime.end.p0(i64 4, ptr %9) #10
  call void @llvm.lifetime.end.p0(i64 4, ptr %8) #10
  call void @llvm.lifetime.end.p0(i64 4, ptr %7) #10
  call void @llvm.lifetime.end.p0(i64 532, ptr %6) #10
  call void @llvm.lifetime.end.p0(i64 268, ptr %5) #10
  call void @llvm.lifetime.end.p0(i64 266, ptr %4) #10
  call void @llvm.lifetime.end.p0(i64 134, ptr %3) #10
  call void @llvm.lifetime.end.p0(i64 532, ptr %2) #10
  call void @llvm.lifetime.end.p0(i64 268, ptr %1) #10
  ret void
}