; Function Attrs: cold nounwind optsize uwtable
define internal fastcc void @compute_alpha_vlcs() unnamed_addr #0 {
  %1 = alloca [134 x i16], align 16
  %2 = alloca [266 x i16], align 16
  %3 = alloca [134 x i8], align 16
  %4 = alloca [266 x i8], align 16
  %5 = alloca [134 x i16], align 16
  %6 = alloca [266 x i16], align 16
  call void @llvm.lifetime.start.p0(i64 268, ptr nonnull %1) #9
  call void @llvm.lifetime.start.p0(i64 532, ptr nonnull %2) #9
  call void @llvm.lifetime.start.p0(i64 134, ptr nonnull %3) #9
  call void @llvm.lifetime.start.p0(i64 266, ptr nonnull %4) #9
  call void @llvm.lifetime.start.p0(i64 268, ptr nonnull %5) #9
  call void @llvm.lifetime.start.p0(i64 532, ptr nonnull %6) #9
  store i16 0, ptr %1, align 16, !tbaa !52
  store i8 1, ptr %3, align 16, !tbaa !42
  store i16 0, ptr %5, align 16, !tbaa !52
  %scevgep = getelementptr inbounds nuw i8, ptr %3, i64 1
  store i32 67372036, ptr %scevgep, align 1
  br label %7

7:                                                ; preds = %0, %7
  %indvars.iv = phi i64 [ 1, %0 ], [ %indvars.iv.next, %7 ]
  %.05360 = phi i32 [ 0, %0 ], [ %11, %7 ]
  %.053.tr = trunc nuw nsw i32 %.05360 to i16
  %8 = shl nuw nsw i16 %.053.tr, 2
  %9 = or disjoint i16 %8, 1
  %10 = getelementptr inbounds nuw [134 x i16], ptr %1, i64 0, i64 %indvars.iv
  store i16 %9, ptr %10, align 2, !tbaa !52
  %11 = add nuw nsw i32 %.05360, 1
  %12 = trunc nuw nsw i32 %11 to i16
  %13 = getelementptr inbounds nuw [134 x i16], ptr %5, i64 0, i64 %indvars.iv
  store i16 %12, ptr %13, align 2, !tbaa !52
  %indvars.iv.next = add nuw nsw i64 %indvars.iv, 1
  %exitcond.not = icmp eq i32 %11, 4
  br i1 %exitcond.not, label %.preheader58.preheader, label %7, !llvm.loop !54

.preheader58.preheader:                           ; preds = %7
  %scevgep73 = getelementptr inbounds nuw i8, ptr %3, i64 5
  call void @llvm.memset.p0.i64(ptr noundef nonnull align 1 dereferenceable(128) %scevgep73, i8 10, i64 128, i1 false), !tbaa !42
  br label %.preheader58

.preheader58:                                     ; preds = %.preheader58.preheader, %.preheader58
  %indvars.iv74 = phi i64 [ 5, %.preheader58.preheader ], [ %indvars.iv.next75, %.preheader58 ]
  %.162 = phi i32 [ 0, %.preheader58.preheader ], [ %18, %.preheader58 ]
  %.1.tr = trunc nuw nsw i32 %.162 to i16
  %14 = shl nuw nsw i16 %.1.tr, 3
  %15 = or disjoint i16 %14, 7
  %16 = getelementptr inbounds nuw [134 x i16], ptr %1, i64 0, i64 %indvars.iv74
  store i16 %15, ptr %16, align 2, !tbaa !52
  %17 = getelementptr inbounds nuw [134 x i16], ptr %5, i64 0, i64 %indvars.iv74
  store i16 %.1.tr, ptr %17, align 2, !tbaa !52
  %indvars.iv.next75 = add nuw nsw i64 %indvars.iv74, 1
  %18 = add nuw nsw i32 %.162, 1
  %exitcond77.not = icmp eq i32 %18, 128
  br i1 %exitcond77.not, label %19, label %.preheader58, !llvm.loop !55

19:                                               ; preds = %.preheader58
  %20 = getelementptr inbounds nuw i8, ptr %1, i64 266
  store i16 3, ptr %20, align 2, !tbaa !52
  %21 = getelementptr inbounds nuw i8, ptr %3, i64 133
  store i8 3, ptr %21, align 1, !tbaa !42
  %22 = getelementptr inbounds nuw i8, ptr %5, i64 266
  store i16 -1, ptr %22, align 2, !tbaa !52
  call void @ff_vlc_init_table_sparse(ptr noundef nonnull @dc_alpha_run_vlc_le, i32 noundef 160, i32 noundef 5, i32 noundef 134, ptr noundef nonnull %3, i32 noundef 1, i32 noundef 1, ptr noundef nonnull %1, i32 noundef 2, i32 noundef 2, ptr noundef nonnull %5, i32 noundef 2, i32 noundef 2, i32 noundef 12) #9
  br label %23

23:                                               ; preds = %19, %46
  %.not = phi i1 [ true, %19 ], [ false, %46 ]
  %.067 = phi i32 [ 0, %19 ], [ 1, %46 ]
  %.25666 = phi i32 [ 0, %19 ], [ %47, %46 ]
  %.0.tr = trunc nuw nsw i32 %.067 to i16
  %24 = shl nuw nsw i16 %.0.tr, 1
  %25 = or disjoint i16 %24, 1
  %26 = sext i32 %.25666 to i64
  %27 = getelementptr inbounds [266 x i16], ptr %2, i64 0, i64 %26
  store i16 %25, ptr %27, align 2, !tbaa !52
  %28 = getelementptr inbounds [266 x i8], ptr %4, i64 0, i64 %26
  store i8 2, ptr %28, align 1, !tbaa !42
  %29 = select i1 %.not, i16 1, i16 -1
  %30 = getelementptr inbounds [266 x i16], ptr %6, i64 0, i64 %26
  store i16 %29, ptr %30, align 2, !tbaa !52
  %31 = shl nuw nsw i32 %.067, 2
  %.35763 = add i32 %.25666, 1
  %32 = sext i32 %.35763 to i64
  %scevgep78 = getelementptr i8, ptr %4, i64 %32
  store i32 84215045, ptr %scevgep78, align 1
  %33 = add i32 %.25666, 2
  br label %34

34:                                               ; preds = %23, %34
  %indvars.iv84 = phi i32 [ %33, %23 ], [ %indvars.iv.next85, %34 ]
  %indvars.iv79 = phi i64 [ %32, %23 ], [ %indvars.iv.next80, %34 ]
  %.264 = phi i32 [ 0, %23 ], [ %45, %34 ]
  %35 = shl nuw nsw i32 %.264, 3
  %36 = or disjoint i32 %35, %31
  %37 = trunc nuw i32 %36 to i16
  %38 = or disjoint i16 %37, 2
  %39 = getelementptr inbounds [266 x i16], ptr %2, i64 0, i64 %indvars.iv79
  store i16 %38, ptr %39, align 2, !tbaa !52
  %40 = sub nuw nsw i32 65534, %.264
  %41 = add nuw nsw i32 %.264, 2
  %42 = select i1 %.not, i32 %41, i32 %40
  %43 = trunc nuw i32 %42 to i16
  %44 = getelementptr inbounds [266 x i16], ptr %6, i64 0, i64 %indvars.iv79
  store i16 %43, ptr %44, align 2, !tbaa !52
  %45 = add nuw nsw i32 %.264, 1
  %indvars.iv.next80 = add nsw i64 %indvars.iv79, 1
  %exitcond82.not = icmp eq i32 %45, 4
  %indvars.iv.next85 = add i32 %indvars.iv84, 1
  br i1 %exitcond82.not, label %46, label %34, !llvm.loop !56

46:                                               ; preds = %34
  %47 = trunc i64 %indvars.iv.next80 to i32
  br i1 %.not, label %23, label %.preheader.preheader, !llvm.loop !57

.preheader.preheader:                             ; preds = %46
  %sext = shl i64 %indvars.iv.next80, 32
  %48 = ashr exact i64 %sext, 32
  %scevgep83 = getelementptr i8, ptr %4, i64 %48
  call void @llvm.memset.p0.i64(ptr noundef nonnull align 1 dereferenceable(256) %scevgep83, i8 10, i64 256, i1 false), !tbaa !42
  %49 = sext i32 %indvars.iv84 to i64
  br label %.preheader

.preheader:                                       ; preds = %.preheader.preheader, %.preheader
  %indvars.iv86 = phi i64 [ %49, %.preheader.preheader ], [ %indvars.iv.next87, %.preheader ]
  %.369 = phi i32 [ 0, %.preheader.preheader ], [ %53, %.preheader ]
  %.3.tr = trunc nuw nsw i32 %.369 to i16
  %50 = shl nuw nsw i16 %.3.tr, 2
  %51 = getelementptr inbounds [266 x i16], ptr %2, i64 0, i64 %indvars.iv86
  store i16 %50, ptr %51, align 2, !tbaa !52
  %52 = getelementptr inbounds [266 x i16], ptr %6, i64 0, i64 %indvars.iv86
  store i16 %.3.tr, ptr %52, align 2, !tbaa !52
  %indvars.iv.next87 = add nsw i64 %indvars.iv86, 1
  %53 = add nuw nsw i32 %.369, 1
  %exitcond89.not = icmp eq i32 %53, 256
  br i1 %exitcond89.not, label %54, label %.preheader, !llvm.loop !58

54:                                               ; preds = %.preheader
  %55 = icmp eq i64 %indvars.iv.next87, 266
  br i1 %55, label %57, label %56

56:                                               ; preds = %54
  call void (ptr, i32, ptr, ...) @av_log(ptr noundef null, i32 noundef 0, ptr noundef nonnull @.str.3, ptr noundef nonnull @.str.6, ptr noundef nonnull @.str.5, i32 noundef 568) #9
  call void @abort() #11
  unreachable

57:                                               ; preds = %54
  call void @ff_vlc_init_table_sparse(ptr noundef nonnull @dc_alpha_level_vlc_le, i32 noundef 288, i32 noundef 5, i32 noundef 266, ptr noundef nonnull %4, i32 noundef 1, i32 noundef 1, ptr noundef nonnull %2, i32 noundef 2, i32 noundef 2, ptr noundef nonnull %6, i32 noundef 2, i32 noundef 2, i32 noundef 12) #9
  call void @llvm.lifetime.end.p0(i64 532, ptr nonnull %6) #9
  call void @llvm.lifetime.end.p0(i64 268, ptr nonnull %5) #9
  call void @llvm.lifetime.end.p0(i64 266, ptr nonnull %4) #9
  call void @llvm.lifetime.end.p0(i64 134, ptr nonnull %3) #9
  call void @llvm.lifetime.end.p0(i64 532, ptr nonnull %2) #9
  call void @llvm.lifetime.end.p0(i64 268, ptr nonnull %1) #9
  ret void
}